target datalayout = "e-m:e-p270:32:32-p271:32:32-p272:64:64-i64:64-i128:128-f80:128-n8:16:32:64-S128"
target triple = "x86_64-pc-linux-gnu"

%struct.slice_buffer_s = type { ptr, ptr, i32, i32, i32, i32, ptr }
%struct.SnowContext = type { ptr, ptr, %struct.RangeCoder, %struct.HpelDSPContext, %struct.VideoDSPContext, %struct.H264QpelContext, %struct.SnowDWTContext, ptr, ptr, [8 x ptr], ptr, [32 x i8], [4224 x i8], i32, i32, i32, i32, i32, i32, i32, i32, i32, i32, i32, [8 x ptr], [8 x ptr], ptr, ptr, ptr, ptr, ptr, i32, i32, i32, i32, i32, i32, i32, i32, i32, i32, i32, i32, i32, i32, i32, [4 x %struct.Plane], ptr, %struct.slice_buffer_s, ptr, ptr, ptr, i32, i32 }
%struct.RangeCoder = type { i32, i32, i32, i32, [256 x i8], [256 x i8], ptr, ptr, ptr, i32 }
%struct.HpelDSPContext = type { [4 x [4 x ptr]], [4 x [4 x ptr]], [4 x [4 x ptr]], [4 x ptr] }
%struct.VideoDSPContext = type { ptr, ptr }
%struct.H264QpelContext = type { [4 x [16 x ptr]], [4 x [16 x ptr]] }
%struct.SnowDWTContext = type { ptr, ptr, ptr }
%struct.Plane = type { i32, i32, [8 x [4 x %struct.SubBand]], i32, [4 x i8], i32, i32, i32, [4 x i8], i32 }
%struct.SubBand = type { i32, i32, i32, i32, i32, ptr, ptr, i32, i32, i32, ptr, ptr, [519 x [32 x i8]] }
%struct.AVRational = type { i32, i32 }
%struct.AVChannelLayout = type { i32, i32, %union.anon, ptr }
%union.anon = type { i64 }
%struct.AVFrame = type { [8 x ptr], [8 x i32], ptr, i32, i32, i32, i32, i32, %struct.AVRational, i64, i64, %struct.AVRational, i32, ptr, i32, i32, [8 x ptr], ptr, i32, ptr, i32, i32, i32, i32, i32, i32, i32, i64, ptr, i32, ptr, ptr, i64, i64, i64, i64, ptr, %struct.AVChannelLayout, i64 }

@.str = private unnamed_addr constant [21 x i8] c"No reference frames\0A\00", align 1

; Function Attrs: nounwind uwtable
define i32 @ff_snow_frames_prepare(ptr noundef %0) #0 {
  %2 = alloca i32, align 4
  %3 = alloca ptr, align 8
  %4 = alloca ptr, align 8
  %5 = alloca i32, align 4
  %6 = alloca i32, align 4
  %7 = alloca i32, align 4
  store ptr %0, ptr %3, align 8, !tbaa !27
  call void @llvm.lifetime.start.p0(i64 8, ptr %4) #6
  %8 = load ptr, ptr %3, align 8, !tbaa !27
  %9 = getelementptr inbounds nuw %struct.SnowContext, ptr %8, i32 0, i32 9
  %10 = load ptr, ptr %3, align 8, !tbaa !27
  %11 = getelementptr inbounds nuw %struct.SnowContext, ptr %10, i32 0, i32 22
  %12 = load i32, ptr %11, align 4, !tbaa !100
  %13 = sub nsw i32 %12, 1
  %14 = sext i32 %13 to i64
  %15 = getelementptr inbounds [8 x ptr], ptr %9, i64 0, i64 %14
  %16 = load ptr, ptr %15, align 8, !tbaa !75
  store ptr %16, ptr %4, align 8, !tbaa !75
  call void @llvm.lifetime.start.p0(i64 4, ptr %5) #6
  %17 = load ptr, ptr %3, align 8, !tbaa !27
  %18 = getelementptr inbounds nuw %struct.SnowContext, ptr %17, i32 0, i32 22
  %19 = load i32, ptr %18, align 4, !tbaa !100
  %20 = sub nsw i32 %19, 1
  store i32 %20, ptr %5, align 4, !tbaa !9
  br label %21

21:                                               ; preds = %38, %1
  %22 = load i32, ptr %5, align 4, !tbaa !9
  %23 = icmp sgt i32 %22, 0
  br i1 %23, label %25, label %24

24:                                               ; preds = %21
  call void @llvm.lifetime.end.p0(i64 4, ptr %5) #6
  br label %41

25:                                               ; preds = %21
  %26 = load ptr, ptr %3, align 8, !tbaa !27
  %27 = getelementptr inbounds nuw %struct.SnowContext, ptr %26, i32 0, i32 9
  %28 = load i32, ptr %5, align 4, !tbaa !9
  %29 = sub nsw i32 %28, 1
  %30 = sext i32 %29 to i64
  %31 = getelementptr inbounds [8 x ptr], ptr %27, i64 0, i64 %30
  %32 = load ptr, ptr %31, align 8, !tbaa !75
  %33 = load ptr, ptr %3, align 8, !tbaa !27
  %34 = getelementptr inbounds nuw %struct.SnowContext, ptr %33, i32 0, i32 9
  %35 = load i32, ptr %5, align 4, !tbaa !9
  %36 = sext i32 %35 to i64
  %37 = getelementptr inbounds [8 x ptr], ptr %34, i64 0, i64 %36
  store ptr %32, ptr %37, align 8, !tbaa !75
  br label %38

38:                                               ; preds = %25
  %39 = load i32, ptr %5, align 4, !tbaa !9
  %40 = add nsw i32 %39, -1
  store i32 %40, ptr %5, align 4, !tbaa !9
  br label %21, !llvm.loop !136

41:                                               ; preds = %24
  %42 = load ptr, ptr %3, align 8, !tbaa !27
  %43 = getelementptr inbounds nuw %struct.SnowContext, ptr %42, i32 0, i32 8
  %44 = load ptr, ptr %43, align 8, !tbaa !109
  %45 = load ptr, ptr %3, align 8, !tbaa !27
  %46 = getelementptr inbounds nuw %struct.SnowContext, ptr %45, i32 0, i32 9
  %47 = getelementptr inbounds [8 x ptr], ptr %46, i64 0, i64 0
  store ptr %44, ptr %47, align 8, !tbaa !75
  %48 = load ptr, ptr %4, align 8, !tbaa !75
  %49 = load ptr, ptr %3, align 8, !tbaa !27
  %50 = getelementptr inbounds nuw %struct.SnowContext, ptr %49, i32 0, i32 8
  store ptr %48, ptr %50, align 8, !tbaa !109
  %51 = load ptr, ptr %3, align 8, !tbaa !27
  %52 = getelementptr inbounds nuw %struct.SnowContext, ptr %51, i32 0, i32 8
  %53 = load ptr, ptr %52, align 8, !tbaa !109
  call void @av_frame_unref(ptr noundef %53)
  %54 = load ptr, ptr %3, align 8, !tbaa !27
  %55 = getelementptr inbounds nuw %struct.SnowContext, ptr %54, i32 0, i32 13
  %56 = load i32, ptr %55, align 8, !tbaa !137
  %57 = icmp ne i32 %56, 0
  br i1 %57, label %58, label %67

58:                                               ; preds = %41
  %59 = load ptr, ptr %3, align 8, !tbaa !27
  %60 = getelementptr inbounds nuw %struct.SnowContext, ptr %59, i32 0, i32 23
  store i32 0, ptr %60, align 8, !tbaa !138
  %61 = load ptr, ptr %3, align 8, !tbaa !27
  %62 = getelementptr inbounds nuw %struct.SnowContext, ptr %61, i32 0, i32 8
  %63 = load ptr, ptr %62, align 8, !tbaa !109
  %64 = getelementptr inbounds nuw %struct.AVFrame, ptr %63, i32 0, i32 21
  %65 = load i32, ptr %64, align 4, !tbaa !139
  %66 = or i32 %65, 2
  store i32 %66, ptr %64, align 4, !tbaa !139
  br label %129

67:                                               ; preds = %41
  call void @llvm.lifetime.start.p0(i64 4, ptr %6) #6
  store i32 0, ptr %6, align 4, !tbaa !9
  br label %68

68:                                               ; preds = %104, %67
  %69 = load i32, ptr %6, align 4, !tbaa !9
  %70 = load ptr, ptr %3, align 8, !tbaa !27
  %71 = getelementptr inbounds nuw %struct.SnowContext, ptr %70, i32 0, i32 22
  %72 = load i32, ptr %71, align 4, !tbaa !100
  %73 = icmp slt i32 %69, %72
  br i1 %73, label %74, label %85

74:                                               ; preds = %68
  %75 = load ptr, ptr %3, align 8, !tbaa !27
  %76 = getelementptr inbounds nuw %struct.SnowContext, ptr %75, i32 0, i32 9
  %77 = load i32, ptr %6, align 4, !tbaa !9
  %78 = sext i32 %77 to i64
  %79 = getelementptr inbounds [8 x ptr], ptr %76, i64 0, i64 %78
  %80 = load ptr, ptr %79, align 8, !tbaa !75
  %81 = getelementptr inbounds nuw %struct.AVFrame, ptr %80, i32 0, i32 0
  %82 = getelementptr inbounds [8 x ptr], ptr %81, i64 0, i64 0
  %83 = load ptr, ptr %82, align 8, !tbaa !4
  %84 = icmp ne ptr %83, null
  br label %85

85:                                               ; preds = %74, %68
  %86 = phi i1 [ false, %68 ], [ %84, %74 ]
  br i1 %86, label %87, label %107

87:                                               ; preds = %85
  %88 = load i32, ptr %6, align 4, !tbaa !9
  %89 = icmp ne i32 %88, 0
  br i1 %89, label %90, label %103

90:                                               ; preds = %87
  %91 = load ptr, ptr %3, align 8, !tbaa !27
  %92 = getelementptr inbounds nuw %struct.SnowContext, ptr %91, i32 0, i32 9
  %93 = load i32, ptr %6, align 4, !tbaa !9
  %94 = sub nsw i32 %93, 1
  %95 = sext i32 %94 to i64
  %96 = getelementptr inbounds [8 x ptr], ptr %92, i64 0, i64 %95
  %97 = load ptr, ptr %96, align 8, !tbaa !75
  %98 = getelementptr inbounds nuw %struct.AVFrame, ptr %97, i32 0, i32 21
  %99 = load i32, ptr %98, align 4, !tbaa !139
  %100 = and i32 %99, 2
  %101 = icmp ne i32 %100, 0
  br i1 %101, label %102, label %103

102:                                              ; preds = %90
  br label %107

103:                                              ; preds = %90, %87
  br label %104

104:                                              ; preds = %103
  %105 = load i32, ptr %6, align 4, !tbaa !9
  %106 = add nsw i32 %105, 1
  store i32 %106, ptr %6, align 4, !tbaa !9
  br label %68, !llvm.loop !143

107:                                              ; preds = %102, %85
  %108 = load i32, ptr %6, align 4, !tbaa !9
  %109 = load ptr, ptr %3, align 8, !tbaa !27
  %110 = getelementptr inbounds nuw %struct.SnowContext, ptr %109, i32 0, i32 23
  store i32 %108, ptr %110, align 8, !tbaa !138
  %111 = load ptr, ptr %3, align 8, !tbaa !27
  %112 = getelementptr inbounds nuw %struct.SnowContext, ptr %111, i32 0, i32 23
  %113 = load i32, ptr %112, align 8, !tbaa !138
  %114 = icmp eq i32 %113, 0
  br i1 %114, label %115, label %119

115:                                              ; preds = %107
  %116 = load ptr, ptr %3, align 8, !tbaa !27
  %117 = getelementptr inbounds nuw %struct.SnowContext, ptr %116, i32 0, i32 1
  %118 = load ptr, ptr %117, align 8, !tbaa !32
  call void (ptr, i32, ptr, ...) @av_log(ptr noundef %118, i32 noundef 16, ptr noundef @.str)
  store i32 -1094995529, ptr %2, align 4
  store i32 1, ptr %7, align 4
  br label %126

119:                                              ; preds = %107
  %120 = load ptr, ptr %3, align 8, !tbaa !27
  %121 = getelementptr inbounds nuw %struct.SnowContext, ptr %120, i32 0, i32 8
  %122 = load ptr, ptr %121, align 8, !tbaa !109
  %123 = getelementptr inbounds nuw %struct.AVFrame, ptr %122, i32 0, i32 21
  %124 = load i32, ptr %123, align 4, !tbaa !139
  %125 = and i32 %124, -3
  store i32 %125, ptr %123, align 4, !tbaa !139
  store i32 0, ptr %7, align 4
  br label %126

126:                                              ; preds = %119, %115
  call void @llvm.lifetime.end.p0(i64 4, ptr %6) #6
  %127 = load i32, ptr %7, align 4
  switch i32 %127, label %130 [
    i32 0, label %128
  ]

128:                                              ; preds = %126
  br label %129

129:                                              ; preds = %128, %58
  store i32 0, ptr %2, align 4
  store i32 1, ptr %7, align 4
  br label %130

130:                                              ; preds = %129, %126
  call void @llvm.lifetime.end.p0(i64 8, ptr %4) #6
  %131 = load i32, ptr %2, align 4
  ret i32 %131
}