; Function Attrs: nounwind uwtable
define range(i32 -1094995529, 1) i32 @ff_snow_frames_prepare(ptr noundef captures(none) %0) local_unnamed_addr #0 {
  %2 = getelementptr inbounds nuw i8, ptr %0, i64 2072
  %3 = getelementptr inbounds nuw i8, ptr %0, i64 6436
  %4 = load i32, ptr %3, align 4, !tbaa !88
  %5 = add nsw i32 %4, -1
  %6 = sext i32 %5 to i64
  %7 = getelementptr inbounds [8 x ptr], ptr %2, i64 0, i64 %6
  %8 = load ptr, ptr %7, align 8, !tbaa !66
  %9 = icmp sgt i32 %4, 1
  br i1 %9, label %.lr.ph.preheader, label %._crit_edge

.lr.ph.preheader:                                 ; preds = %1
  %10 = zext nneg i32 %5 to i64
  br label %.lr.ph

._crit_edge:                                      ; preds = %.lr.ph, %1
  %11 = getelementptr inbounds nuw i8, ptr %0, i64 2064
  %12 = load ptr, ptr %11, align 8, !tbaa !97
  store ptr %12, ptr %2, align 8, !tbaa !66
  store ptr %8, ptr %11, align 8, !tbaa !97
  tail call void @av_frame_unref(ptr noundef %8) #10
  %13 = getelementptr inbounds nuw i8, ptr %0, i64 6400
  %14 = load i32, ptr %13, align 8, !tbaa !123
  %.not = icmp eq i32 %14, 0
  br i1 %.not, label %.preheader, label %22

.preheader:                                       ; preds = %._crit_edge
  %15 = load i32, ptr %3, align 4, !tbaa !88
  %16 = icmp sgt i32 %15, 0
  br i1 %16, label %.lr.ph47.preheader, label %.critedge.thread

.critedge.thread:                                 ; preds = %.preheader
  %17 = getelementptr inbounds nuw i8, ptr %0, i64 6440
  store i32 0, ptr %17, align 8, !tbaa !124
  br label %.thread

.lr.ph47.preheader:                               ; preds = %.preheader
  %wide.trip.count = zext nneg i32 %15 to i64
  br label %.lr.ph47

.lr.ph:                                           ; preds = %.lr.ph.preheader, %.lr.ph
  %indvars.iv = phi i64 [ %10, %.lr.ph.preheader ], [ %indvars.iv.next, %.lr.ph ]
  %indvars.iv.next = add nsw i64 %indvars.iv, -1
  %18 = getelementptr inbounds nuw [8 x ptr], ptr %2, i64 0, i64 %indvars.iv.next
  %19 = load ptr, ptr %18, align 8, !tbaa !66
  %20 = getelementptr inbounds nuw [8 x ptr], ptr %2, i64 0, i64 %indvars.iv
  store ptr %19, ptr %20, align 8, !tbaa !66
  %21 = icmp samesign ugt i64 %indvars.iv, 1
  br i1 %21, label %.lr.ph, label %._crit_edge, !llvm.loop !125

22:                                               ; preds = %._crit_edge
  %23 = getelementptr inbounds nuw i8, ptr %0, i64 6440
  store i32 0, ptr %23, align 8, !tbaa !124
  %24 = load ptr, ptr %11, align 8, !tbaa !97
  %25 = getelementptr inbounds nuw i8, ptr %24, i64 276
  %26 = load i32, ptr %25, align 4, !tbaa !126
  %27 = or i32 %26, 2
  store i32 %27, ptr %25, align 4, !tbaa !126
  br label %55

.lr.ph47:                                         ; preds = %.lr.ph47.preheader, %39
  %indvars.iv52 = phi i64 [ 0, %.lr.ph47.preheader ], [ %indvars.iv.next53, %39 ]
  %28 = getelementptr inbounds nuw [8 x ptr], ptr %2, i64 0, i64 %indvars.iv52
  %29 = load ptr, ptr %28, align 8, !tbaa !66
  %30 = load ptr, ptr %29, align 8, !tbaa !14
  %.not34 = icmp eq ptr %30, null
  br i1 %.not34, label %.critedge.split.loop.exit, label %31

31:                                               ; preds = %.lr.ph47
  %.not35 = icmp eq i64 %indvars.iv52, 0
  br i1 %.not35, label %39, label %32

32:                                               ; preds = %31
  %33 = add nsw i64 %indvars.iv52, -1
  %34 = getelementptr inbounds [8 x ptr], ptr %2, i64 0, i64 %33
  %35 = load ptr, ptr %34, align 8, !tbaa !66
  %36 = getelementptr inbounds nuw i8, ptr %35, i64 276
  %37 = load i32, ptr %36, align 4, !tbaa !126
  %38 = and i32 %37, 2
  %.not36 = icmp eq i32 %38, 0
  br i1 %.not36, label %39, label %48

39:                                               ; preds = %31, %32
  %indvars.iv.next53 = add nuw nsw i64 %indvars.iv52, 1
  %exitcond.not = icmp eq i64 %indvars.iv.next53, %wide.trip.count
  br i1 %exitcond.not, label %.critedge, label %.lr.ph47, !llvm.loop !131

.critedge.split.loop.exit:                        ; preds = %.lr.ph47
  %40 = trunc nuw nsw i64 %indvars.iv52 to i32
  br label %.critedge

.critedge:                                        ; preds = %39, %.critedge.split.loop.exit
  %.031.lcssa = phi i32 [ %40, %.critedge.split.loop.exit ], [ %15, %39 ]
  %41 = getelementptr inbounds nuw i8, ptr %0, i64 6440
  store i32 %.031.lcssa, ptr %41, align 8, !tbaa !124
  %.not37 = icmp eq i32 %.031.lcssa, 0
  br i1 %.not37, label %.thread, label %.thread42

.thread42:                                        ; preds = %.critedge
  %42 = load ptr, ptr %11, align 8, !tbaa !97
  %43 = getelementptr inbounds nuw i8, ptr %42, i64 276
  %44 = load i32, ptr %43, align 4, !tbaa !126
  %45 = and i32 %44, -3
  store i32 %45, ptr %43, align 4, !tbaa !126
  br label %55

.thread:                                          ; preds = %.critedge.thread, %.critedge
  %46 = getelementptr inbounds nuw i8, ptr %0, i64 8
  %47 = load ptr, ptr %46, align 8, !tbaa !25
  tail call void (ptr, i32, ptr, ...) @av_log(ptr noundef %47, i32 noundef 16, ptr noundef nonnull @.str) #10
  br label %55

48:                                               ; preds = %32
  %49 = trunc nuw nsw i64 %indvars.iv52 to i32
  %50 = getelementptr inbounds nuw i8, ptr %0, i64 6440
  store i32 %49, ptr %50, align 8, !tbaa !124
  %51 = load ptr, ptr %11, align 8, !tbaa !97
  %52 = getelementptr inbounds nuw i8, ptr %51, i64 276
  %53 = load i32, ptr %52, align 4, !tbaa !126
  %54 = and i32 %53, -3
  store i32 %54, ptr %52, align 4, !tbaa !126
  br label %55

55:                                               ; preds = %22, %.thread42, %48, %.thread
  %.1 = phi i32 [ -1094995529, %.thread ], [ 0, %48 ], [ 0, %.thread42 ], [ 0, %22 ]
  ret i32 %.1
}